; Function Attrs: mustprogress noreturn uwtable
define void @_ZN3gmx17GpuForceReductionC2ERK13DeviceContextRK12DeviceStreamP13gmx_wallcycle(ptr nocapture noundef nonnull align 8 dereferenceable(8) %0, ptr nocapture nonnull readnone align 1 %1, ptr nocapture nonnull readnone align 1 %2, ptr nocapture readnone %3) unnamed_addr #0 align 2 personality ptr @__gxx_personality_v0 {
  store ptr null, ptr %0, align 8
  invoke void @_ZN3gmx8internal13assertHandlerEPKcS2_S2_S2_i(ptr noundef nonnull @.str, ptr noundef nonnull @.str.1, ptr noundef nonnull @"__PRETTY_FUNCTION__._ZZN3gmx17GpuForceReductionC1ERK13DeviceContextRK12DeviceStreamP13gmx_wallcycleENK3$_0clEv", ptr noundef nonnull @.str.2, i32 noundef 63) #4
          to label %.noexc unwind label %5

.noexc:                                           ; preds = %4
  unreachable

5:                                                ; preds = %4
  %6 = landingpad { ptr, i32 }
          cleanup
  %7 = load ptr, ptr %0, align 8
  %.not.i = icmp eq ptr %7, null
  br i1 %.not.i, label %_ZNSt10unique_ptrIN3gmx17GpuForceReduction4ImplESt14default_deleteIS2_EED2Ev.exit, label %_ZNKSt14default_deleteIN3gmx17GpuForceReduction4ImplEEclEPS2_.exit.i

_ZNKSt14default_deleteIN3gmx17GpuForceReduction4ImplEEclEPS2_.exit.i: ; preds = %5
  tail call void @_ZdlPv(ptr noundef nonnull %7) #5
  br label %_ZNSt10unique_ptrIN3gmx17GpuForceReduction4ImplESt14default_deleteIS2_EED2Ev.exit

_ZNSt10unique_ptrIN3gmx17GpuForceReduction4ImplESt14default_deleteIS2_EED2Ev.exit: ; preds = %5, %_ZNKSt14default_deleteIN3gmx17GpuForceReduction4ImplEEclEPS2_.exit.i
  store ptr null, ptr %0, align 8
  resume { ptr, i32 } %6
}